; Function Attrs: mustprogress nofree norecurse nosync nounwind willreturn memory(read, argmem: none, inaccessiblemem: none) uwtable
define hidden ptr @b2GetWorldLocked(i32 noundef %0) local_unnamed_addr #5 {
  %2 = sext i32 %0 to i64
  %3 = getelementptr inbounds %struct.b2World, ptr @b2_worlds, i64 %2
  %4 = getelementptr inbounds nuw i8, ptr %3, i64 1783
  %5 = load i8, ptr %4, align 1, !tbaa !35, !range !77, !noundef !78
  %6 = trunc nuw i8 %5 to i1
  %. = select i1 %6, ptr null, ptr %3
  ret ptr %.
}